
Christmas Star.elf:     file format elf32-avr

Sections:
Idx Name          Size      VMA       LMA       File off  Algn
  0 .text         00000346  00000000  00000000  00000094  2**1
                  CONTENTS, ALLOC, LOAD, READONLY, CODE
  1 .data         00000002  00800040  00000346  000003da  2**0
                  CONTENTS, ALLOC, LOAD, DATA
  2 .bss          00000003  00800042  00800042  000003dc  2**0
                  ALLOC
  3 .comment      00000030  00000000  00000000  000003dc  2**0
                  CONTENTS, READONLY
  4 .note.gnu.avr.deviceinfo 0000003c  00000000  00000000  0000040c  2**2
                  CONTENTS, READONLY
  5 .debug_info   00000305  00000000  00000000  00000448  2**0
                  CONTENTS, READONLY, DEBUGGING
  6 .debug_abbrev 000002d9  00000000  00000000  0000074d  2**0
                  CONTENTS, READONLY, DEBUGGING
  7 .debug_line   000000d9  00000000  00000000  00000a26  2**0
                  CONTENTS, READONLY, DEBUGGING
  8 .debug_str    00000115  00000000  00000000  00000aff  2**0
                  CONTENTS, READONLY, DEBUGGING

Disassembly of section .text:

00000000 <__vectors>:
   0:	13 c0       	rjmp	.+38     	; 0x28 <__ctors_end>
   2:	2d c0       	rjmp	.+90     	; 0x5e <__bad_interrupt>
   4:	65 c0       	rjmp	.+202    	; 0xd0 <__vector_2>
   6:	2b c0       	rjmp	.+86     	; 0x5e <__bad_interrupt>
   8:	2a c0       	rjmp	.+84     	; 0x5e <__bad_interrupt>
   a:	29 c0       	rjmp	.+82     	; 0x5e <__bad_interrupt>
   c:	28 c0       	rjmp	.+80     	; 0x5e <__bad_interrupt>
   e:	27 c0       	rjmp	.+78     	; 0x5e <__bad_interrupt>
  10:	26 c0       	rjmp	.+76     	; 0x5e <__bad_interrupt>
  12:	25 c0       	rjmp	.+74     	; 0x5e <__bad_interrupt>
  14:	24 c0       	rjmp	.+72     	; 0x5e <__bad_interrupt>
  16:	6c c1       	rjmp	.+728    	; 0x2f0 <main+0x24>
  18:	6d c1       	rjmp	.+730    	; 0x2f4 <main+0x28>
  1a:	6f c1       	rjmp	.+734    	; 0x2fa <main+0x2e>
  1c:	71 c1       	rjmp	.+738    	; 0x300 <main+0x34>
  1e:	72 c1       	rjmp	.+740    	; 0x304 <main+0x38>
  20:	74 c1       	rjmp	.+744    	; 0x30a <main+0x3e>
  22:	75 c1       	rjmp	.+746    	; 0x30e <main+0x42>
  24:	77 c1       	rjmp	.+750    	; 0x314 <main+0x48>
  26:	7a c1       	rjmp	.+756    	; 0x31c <main+0x50>

00000028 <__ctors_end>:
  28:	11 27       	eor	r17, r17
  2a:	1f bf       	out	0x3f, r17	; 63
  2c:	cf e5       	ldi	r28, 0x5F	; 95
  2e:	d0 e0       	ldi	r29, 0x00	; 0
  30:	de bf       	out	0x3e, r29	; 62
  32:	cd bf       	out	0x3d, r28	; 61

00000034 <__do_copy_data>:
  34:	20 e0       	ldi	r18, 0x00	; 0
  36:	a0 e4       	ldi	r26, 0x40	; 64
  38:	b0 e0       	ldi	r27, 0x00	; 0
  3a:	e6 e4       	ldi	r30, 0x46	; 70
  3c:	f3 e4       	ldi	r31, 0x43	; 67
  3e:	02 c0       	rjmp	.+4      	; 0x44 <__SREG__+0x5>
  40:	31 91       	ld	r19, Z+
  42:	3d 93       	st	X+, r19
  44:	a2 34       	cpi	r26, 0x42	; 66
  46:	b2 07       	cpc	r27, r18
  48:	d9 f7       	brne	.-10     	; 0x40 <__SREG__+0x1>

0000004a <__do_clear_bss>:
  4a:	20 e0       	ldi	r18, 0x00	; 0
  4c:	a2 e4       	ldi	r26, 0x42	; 66
  4e:	b0 e0       	ldi	r27, 0x00	; 0
  50:	01 c0       	rjmp	.+2      	; 0x54 <.do_clear_bss_start>

00000052 <.do_clear_bss_loop>:
  52:	1d 93       	st	X+, r17

00000054 <.do_clear_bss_start>:
  54:	a5 34       	cpi	r26, 0x45	; 69
  56:	b2 07       	cpc	r27, r18
  58:	e1 f7       	brne	.-8      	; 0x52 <.do_clear_bss_loop>
  5a:	38 d1       	rcall	.+624    	; 0x2cc <main>
  5c:	72 c1       	rjmp	.+740    	; 0x342 <_exit>

0000005e <__bad_interrupt>:
  5e:	d0 cf       	rjmp	.-96     	; 0x0 <__vectors>

00000060 <ws2812_sendarray_mask>:
  60:	cf 93       	push	r28
  62:	df 93       	push	r29
  64:	cd b7       	in	r28, 0x3d	; 61
  66:	de b7       	in	r29, 0x3e	; 62
  68:	51 b1       	in	r21, 0x01	; 1
  6a:	54 2b       	or	r21, r20
  6c:	51 b9       	out	0x01, r21	; 1
  6e:	52 b1       	in	r21, 0x02	; 2
  70:	e4 2f       	mov	r30, r20
  72:	e0 95       	com	r30
  74:	5e 23       	and	r21, r30
  76:	e2 b1       	in	r30, 0x02	; 2
  78:	4e 2b       	or	r20, r30
  7a:	af b7       	in	r26, 0x3f	; 63
  7c:	f8 94       	cli
  7e:	e8 2f       	mov	r30, r24
  80:	f9 2f       	mov	r31, r25
  82:	6e 0f       	add	r22, r30
  84:	7f 1f       	adc	r23, r31
  86:	e6 17       	cp	r30, r22
  88:	f7 07       	cpc	r31, r23
  8a:	e1 f0       	breq	.+56     	; 0xc4 <loop28+0x34>
  8c:	81 91       	ld	r24, Z+
  8e:	98 e0       	ldi	r25, 0x08	; 8

00000090 <loop28>:
  90:	42 b9       	out	0x02, r20	; 2
  92:	87 ff       	sbrs	r24, 7
  94:	52 b9       	out	0x02, r21	; 2
  96:	88 0f       	add	r24, r24
  98:	00 00       	nop
  9a:	00 c0       	rjmp	.+0      	; 0x9c <loop28+0xc>
  9c:	52 b9       	out	0x02, r21	; 2
  9e:	00 00       	nop
  a0:	00 c0       	rjmp	.+0      	; 0xa2 <loop28+0x12>
  a2:	00 c0       	rjmp	.+0      	; 0xa4 <loop28+0x14>
  a4:	00 c0       	rjmp	.+0      	; 0xa6 <loop28+0x16>
  a6:	00 c0       	rjmp	.+0      	; 0xa8 <loop28+0x18>
  a8:	00 c0       	rjmp	.+0      	; 0xaa <loop28+0x1a>
  aa:	00 c0       	rjmp	.+0      	; 0xac <loop28+0x1c>
  ac:	00 c0       	rjmp	.+0      	; 0xae <loop28+0x1e>
  ae:	00 c0       	rjmp	.+0      	; 0xb0 <loop28+0x20>
  b0:	00 c0       	rjmp	.+0      	; 0xb2 <loop28+0x22>
  b2:	00 c0       	rjmp	.+0      	; 0xb4 <loop28+0x24>
  b4:	00 c0       	rjmp	.+0      	; 0xb6 <loop28+0x26>
  b6:	00 c0       	rjmp	.+0      	; 0xb8 <loop28+0x28>
  b8:	00 c0       	rjmp	.+0      	; 0xba <loop28+0x2a>
  ba:	00 c0       	rjmp	.+0      	; 0xbc <loop28+0x2c>
  bc:	00 c0       	rjmp	.+0      	; 0xbe <loop28+0x2e>
  be:	9a 95       	dec	r25
  c0:	39 f7       	brne	.-50     	; 0x90 <loop28>
  c2:	e1 cf       	rjmp	.-62     	; 0x86 <ws2812_sendarray_mask+0x26>
  c4:	af bf       	out	0x3f, r26	; 63
  c6:	df 91       	pop	r29
  c8:	cf 91       	pop	r28
  ca:	08 95       	ret

000000cc <ws2812_sendarray>:
  cc:	44 e0       	ldi	r20, 0x04	; 4
  ce:	c8 cf       	rjmp	.-112    	; 0x60 <ws2812_sendarray_mask>

000000d0 <__vector_2>:
  d0:	1f 93       	push	r17
  d2:	0f 93       	push	r16
  d4:	0f b7       	in	r16, 0x3f	; 63
  d6:	0f 93       	push	r16
  d8:	10 e0       	ldi	r17, 0x00	; 0
  da:	6f 93       	push	r22
  dc:	7f 93       	push	r23
  de:	8f 93       	push	r24
  e0:	9f 93       	push	r25
  e2:	01 99       	sbic	0x00, 1	; 0
  e4:	05 c0       	rjmp	.+10     	; 0xf0 <__vector_2+0x20>
  e6:	80 a1       	lds	r24, 0x40	; 0x800040 <__data_start>
  e8:	8f 5f       	subi	r24, 0xFF	; 255
  ea:	6a e0       	ldi	r22, 0x0A	; 10
  ec:	1e d1       	rcall	.+572    	; 0x32a <__udivmodqi4>
  ee:	90 a9       	sts	0x40, r25	; 0x800040 <__data_start>
  f0:	9f 91       	pop	r25
  f2:	8f 91       	pop	r24
  f4:	7f 91       	pop	r23
  f6:	6f 91       	pop	r22
  f8:	0f 91       	pop	r16
  fa:	0f bf       	out	0x3f, r16	; 63
  fc:	0f 91       	pop	r16
  fe:	1f 91       	pop	r17
 100:	18 95       	reti

00000102 <fade>:
 102:	2f 93       	push	r18
 104:	3f 93       	push	r19
 106:	cf 93       	push	r28
 108:	df 93       	push	r29
 10a:	00 d0       	rcall	.+0      	; 0x10c <fade+0xa>
 10c:	cd b7       	in	r28, 0x3d	; 61
 10e:	de b7       	in	r29, 0x3e	; 62
 110:	cf 5f       	subi	r28, 0xFF	; 255
 112:	df 4f       	sbci	r29, 0xFF	; 255
 114:	88 83       	st	Y, r24
 116:	c1 50       	subi	r28, 0x01	; 1
 118:	d0 40       	sbci	r29, 0x00	; 0
 11a:	26 2f       	mov	r18, r22
 11c:	ce 5f       	subi	r28, 0xFE	; 254
 11e:	df 4f       	sbci	r29, 0xFF	; 255
 120:	48 83       	st	Y, r20
 122:	c2 50       	subi	r28, 0x02	; 2
 124:	d0 40       	sbci	r29, 0x00	; 0
 126:	43 a1       	lds	r20, 0x43	; 0x800043 <__data_end+0x1>
 128:	84 17       	cp	r24, r20
 12a:	10 f4       	brcc	.+4      	; 0x130 <fade+0x2e>
 12c:	32 e0       	ldi	r19, 0x02	; 2
 12e:	01 c0       	rjmp	.+2      	; 0x132 <fade+0x30>
 130:	30 e0       	ldi	r19, 0x00	; 0
 132:	cf 5f       	subi	r28, 0xFF	; 255
 134:	df 4f       	sbci	r29, 0xFF	; 255
 136:	58 81       	ld	r21, Y
 138:	c1 50       	subi	r28, 0x01	; 1
 13a:	d0 40       	sbci	r29, 0x00	; 0
 13c:	45 17       	cp	r20, r21
 13e:	08 f4       	brcc	.+2      	; 0x142 <fade+0x40>
 140:	31 60       	ori	r19, 0x01	; 1
 142:	42 a1       	lds	r20, 0x42	; 0x800042 <__data_end>
 144:	24 17       	cp	r18, r20
 146:	08 f4       	brcc	.+2      	; 0x14a <fade+0x48>
 148:	38 60       	ori	r19, 0x08	; 8
 14a:	42 17       	cp	r20, r18
 14c:	08 f4       	brcc	.+2      	; 0x150 <fade+0x4e>
 14e:	34 60       	ori	r19, 0x04	; 4
 150:	44 a1       	lds	r20, 0x44	; 0x800044 <__data_end+0x2>
 152:	ce 5f       	subi	r28, 0xFE	; 254
 154:	df 4f       	sbci	r29, 0xFF	; 255
 156:	78 81       	ld	r23, Y
 158:	c2 50       	subi	r28, 0x02	; 2
 15a:	d0 40       	sbci	r29, 0x00	; 0
 15c:	74 17       	cp	r23, r20
 15e:	08 f4       	brcc	.+2      	; 0x162 <fade+0x60>
 160:	30 62       	ori	r19, 0x20	; 32
 162:	ce 5f       	subi	r28, 0xFE	; 254
 164:	df 4f       	sbci	r29, 0xFF	; 255
 166:	58 81       	ld	r21, Y
 168:	c2 50       	subi	r28, 0x02	; 2
 16a:	d0 40       	sbci	r29, 0x00	; 0
 16c:	45 17       	cp	r20, r21
 16e:	08 f0       	brcs	.+2      	; 0x172 <fade+0x70>
 170:	47 c0       	rjmp	.+142    	; 0x200 <fade+0xfe>
 172:	30 61       	ori	r19, 0x10	; 16
 174:	45 c0       	rjmp	.+138    	; 0x200 <fade+0xfe>
 176:	26 17       	cp	r18, r22
 178:	09 f4       	brne	.+2      	; 0x17c <fade+0x7a>
 17a:	4d c0       	rjmp	.+154    	; 0x216 <fade+0x114>
 17c:	30 ff       	sbrs	r19, 0
 17e:	02 c0       	rjmp	.+4      	; 0x184 <fade+0x82>
 180:	5f 5f       	subi	r21, 0xFF	; 255
 182:	53 a9       	sts	0x43, r21	; 0x800043 <__data_end+0x1>
 184:	31 ff       	sbrs	r19, 1
 186:	03 c0       	rjmp	.+6      	; 0x18e <fade+0x8c>
 188:	53 a1       	lds	r21, 0x43	; 0x800043 <__data_end+0x1>
 18a:	51 50       	subi	r21, 0x01	; 1
 18c:	53 a9       	sts	0x43, r21	; 0x800043 <__data_end+0x1>
 18e:	32 ff       	sbrs	r19, 2
 190:	02 c0       	rjmp	.+4      	; 0x196 <fade+0x94>
 192:	6f 5f       	subi	r22, 0xFF	; 255
 194:	62 a9       	sts	0x42, r22	; 0x800042 <__data_end>
 196:	33 ff       	sbrs	r19, 3
 198:	03 c0       	rjmp	.+6      	; 0x1a0 <fade+0x9e>
 19a:	52 a1       	lds	r21, 0x42	; 0x800042 <__data_end>
 19c:	51 50       	subi	r21, 0x01	; 1
 19e:	52 a9       	sts	0x42, r21	; 0x800042 <__data_end>
 1a0:	34 ff       	sbrs	r19, 4
 1a2:	02 c0       	rjmp	.+4      	; 0x1a8 <fade+0xa6>
 1a4:	4f 5f       	subi	r20, 0xFF	; 255
 1a6:	44 a9       	sts	0x44, r20	; 0x800044 <__data_end+0x2>
 1a8:	35 ff       	sbrs	r19, 5
 1aa:	03 c0       	rjmp	.+6      	; 0x1b2 <fade+0xb0>
 1ac:	44 a1       	lds	r20, 0x44	; 0x800044 <__data_end+0x2>
 1ae:	41 50       	subi	r20, 0x01	; 1
 1b0:	44 a9       	sts	0x44, r20	; 0x800044 <__data_end+0x2>
 1b2:	43 a1       	lds	r20, 0x43	; 0x800043 <__data_end+0x1>
 1b4:	cf 5f       	subi	r28, 0xFF	; 255
 1b6:	df 4f       	sbci	r29, 0xFF	; 255
 1b8:	78 81       	ld	r23, Y
 1ba:	c1 50       	subi	r28, 0x01	; 1
 1bc:	d0 40       	sbci	r29, 0x00	; 0
 1be:	74 13       	cpse	r23, r20
 1c0:	01 c0       	rjmp	.+2      	; 0x1c4 <fade+0xc2>
 1c2:	3c 7f       	andi	r19, 0xFC	; 252
 1c4:	42 a1       	lds	r20, 0x42	; 0x800042 <__data_end>
 1c6:	24 13       	cpse	r18, r20
 1c8:	01 c0       	rjmp	.+2      	; 0x1cc <fade+0xca>
 1ca:	33 7f       	andi	r19, 0xF3	; 243
 1cc:	44 a1       	lds	r20, 0x44	; 0x800044 <__data_end+0x2>
 1ce:	ce 5f       	subi	r28, 0xFE	; 254
 1d0:	df 4f       	sbci	r29, 0xFF	; 255
 1d2:	58 81       	ld	r21, Y
 1d4:	c2 50       	subi	r28, 0x02	; 2
 1d6:	d0 40       	sbci	r29, 0x00	; 0
 1d8:	54 13       	cpse	r21, r20
 1da:	01 c0       	rjmp	.+2      	; 0x1de <fade+0xdc>
 1dc:	3f 7c       	andi	r19, 0xCF	; 207
 1de:	63 e0       	ldi	r22, 0x03	; 3
 1e0:	70 e0       	ldi	r23, 0x00	; 0
 1e2:	82 e4       	ldi	r24, 0x42	; 66
 1e4:	90 e0       	ldi	r25, 0x00	; 0
 1e6:	72 df       	rcall	.-284    	; 0xcc <ws2812_sendarray>
 1e8:	63 e0       	ldi	r22, 0x03	; 3
 1ea:	70 e0       	ldi	r23, 0x00	; 0
 1ec:	82 e4       	ldi	r24, 0x42	; 66
 1ee:	90 e0       	ldi	r25, 0x00	; 0
 1f0:	6d df       	rcall	.-294    	; 0xcc <ws2812_sendarray>
 1f2:	4f ea       	ldi	r20, 0xAF	; 175
 1f4:	56 e3       	ldi	r21, 0x36	; 54
 1f6:	41 50       	subi	r20, 0x01	; 1
 1f8:	50 40       	sbci	r21, 0x00	; 0
 1fa:	e9 f7       	brne	.-6      	; 0x1f6 <fade+0xf4>
 1fc:	00 c0       	rjmp	.+0      	; 0x1fe <fade+0xfc>
 1fe:	00 00       	nop
 200:	53 a1       	lds	r21, 0x43	; 0x800043 <__data_end+0x1>
 202:	62 a1       	lds	r22, 0x42	; 0x800042 <__data_end>
 204:	44 a1       	lds	r20, 0x44	; 0x800044 <__data_end+0x2>
 206:	cf 5f       	subi	r28, 0xFF	; 255
 208:	df 4f       	sbci	r29, 0xFF	; 255
 20a:	78 81       	ld	r23, Y
 20c:	c1 50       	subi	r28, 0x01	; 1
 20e:	d0 40       	sbci	r29, 0x00	; 0
 210:	75 13       	cpse	r23, r21
 212:	b4 cf       	rjmp	.-152    	; 0x17c <fade+0x7a>
 214:	b0 cf       	rjmp	.-160    	; 0x176 <fade+0x74>
 216:	ce 5f       	subi	r28, 0xFE	; 254
 218:	df 4f       	sbci	r29, 0xFF	; 255
 21a:	78 81       	ld	r23, Y
 21c:	c2 50       	subi	r28, 0x02	; 2
 21e:	d0 40       	sbci	r29, 0x00	; 0
 220:	74 13       	cpse	r23, r20
 222:	ac cf       	rjmp	.-168    	; 0x17c <fade+0x7a>
 224:	0f 91       	pop	r16
 226:	0f 91       	pop	r16
 228:	df 91       	pop	r29
 22a:	cf 91       	pop	r28
 22c:	3f 91       	pop	r19
 22e:	2f 91       	pop	r18
 230:	08 95       	ret

00000232 <rainbow>:
 232:	cf 93       	push	r28
 234:	40 e0       	ldi	r20, 0x00	; 0
 236:	60 e0       	ldi	r22, 0x00	; 0
 238:	8f ea       	ldi	r24, 0xAF	; 175
 23a:	63 df       	rcall	.-314    	; 0x102 <fade>
 23c:	c0 e0       	ldi	r28, 0x00	; 0
 23e:	40 a1       	lds	r20, 0x40	; 0x800040 <__data_start>
 240:	48 30       	cpi	r20, 0x08	; 8
 242:	09 f0       	breq	.+2      	; 0x246 <rainbow+0x14>
 244:	41 c0       	rjmp	.+130    	; 0x2c8 <rainbow+0x96>
 246:	c0 ff       	sbrs	r28, 0
 248:	03 c0       	rjmp	.+6      	; 0x250 <rainbow+0x1e>
 24a:	43 a1       	lds	r20, 0x43	; 0x800043 <__data_end+0x1>
 24c:	4f 5f       	subi	r20, 0xFF	; 255
 24e:	43 a9       	sts	0x43, r20	; 0x800043 <__data_end+0x1>
 250:	c1 ff       	sbrs	r28, 1
 252:	03 c0       	rjmp	.+6      	; 0x25a <rainbow+0x28>
 254:	43 a1       	lds	r20, 0x43	; 0x800043 <__data_end+0x1>
 256:	41 50       	subi	r20, 0x01	; 1
 258:	43 a9       	sts	0x43, r20	; 0x800043 <__data_end+0x1>
 25a:	c2 ff       	sbrs	r28, 2
 25c:	03 c0       	rjmp	.+6      	; 0x264 <rainbow+0x32>
 25e:	42 a1       	lds	r20, 0x42	; 0x800042 <__data_end>
 260:	4f 5f       	subi	r20, 0xFF	; 255
 262:	42 a9       	sts	0x42, r20	; 0x800042 <__data_end>
 264:	c3 ff       	sbrs	r28, 3
 266:	03 c0       	rjmp	.+6      	; 0x26e <rainbow+0x3c>
 268:	42 a1       	lds	r20, 0x42	; 0x800042 <__data_end>
 26a:	41 50       	subi	r20, 0x01	; 1
 26c:	42 a9       	sts	0x42, r20	; 0x800042 <__data_end>
 26e:	c4 ff       	sbrs	r28, 4
 270:	03 c0       	rjmp	.+6      	; 0x278 <rainbow+0x46>
 272:	44 a1       	lds	r20, 0x44	; 0x800044 <__data_end+0x2>
 274:	4f 5f       	subi	r20, 0xFF	; 255
 276:	44 a9       	sts	0x44, r20	; 0x800044 <__data_end+0x2>
 278:	c5 ff       	sbrs	r28, 5
 27a:	03 c0       	rjmp	.+6      	; 0x282 <rainbow+0x50>
 27c:	44 a1       	lds	r20, 0x44	; 0x800044 <__data_end+0x2>
 27e:	41 50       	subi	r20, 0x01	; 1
 280:	44 a9       	sts	0x44, r20	; 0x800044 <__data_end+0x2>
 282:	43 a1       	lds	r20, 0x43	; 0x800043 <__data_end+0x1>
 284:	4f 3a       	cpi	r20, 0xAF	; 175
 286:	11 f4       	brne	.+4      	; 0x28c <rainbow+0x5a>
 288:	ce 7d       	andi	r28, 0xDE	; 222
 28a:	c6 60       	ori	r28, 0x06	; 6
 28c:	42 a1       	lds	r20, 0x42	; 0x800042 <__data_end>
 28e:	4f 3a       	cpi	r20, 0xAF	; 175
 290:	11 f4       	brne	.+4      	; 0x296 <rainbow+0x64>
 292:	c9 7f       	andi	r28, 0xF9	; 249
 294:	c8 61       	ori	r28, 0x18	; 24
 296:	44 a1       	lds	r20, 0x44	; 0x800044 <__data_end+0x2>
 298:	4f 3a       	cpi	r20, 0xAF	; 175
 29a:	11 f4       	brne	.+4      	; 0x2a0 <rainbow+0x6e>
 29c:	c7 7e       	andi	r28, 0xE7	; 231
 29e:	c1 62       	ori	r28, 0x21	; 33
 2a0:	63 e0       	ldi	r22, 0x03	; 3
 2a2:	70 e0       	ldi	r23, 0x00	; 0
 2a4:	82 e4       	ldi	r24, 0x42	; 66
 2a6:	90 e0       	ldi	r25, 0x00	; 0
 2a8:	11 df       	rcall	.-478    	; 0xcc <ws2812_sendarray>
 2aa:	63 e0       	ldi	r22, 0x03	; 3
 2ac:	70 e0       	ldi	r23, 0x00	; 0
 2ae:	82 e4       	ldi	r24, 0x42	; 66
 2b0:	90 e0       	ldi	r25, 0x00	; 0
 2b2:	0c df       	rcall	.-488    	; 0xcc <ws2812_sendarray>
 2b4:	4f ef       	ldi	r20, 0xFF	; 255
 2b6:	59 e6       	ldi	r21, 0x69	; 105
 2b8:	68 e1       	ldi	r22, 0x18	; 24
 2ba:	41 50       	subi	r20, 0x01	; 1
 2bc:	50 40       	sbci	r21, 0x00	; 0
 2be:	60 40       	sbci	r22, 0x00	; 0
 2c0:	e1 f7       	brne	.-8      	; 0x2ba <rainbow+0x88>
 2c2:	00 c0       	rjmp	.+0      	; 0x2c4 <rainbow+0x92>
 2c4:	00 00       	nop
 2c6:	bb cf       	rjmp	.-138    	; 0x23e <rainbow+0xc>
 2c8:	cf 91       	pop	r28
 2ca:	08 95       	ret

000002cc <main>:
 2cc:	48 ed       	ldi	r20, 0xD8	; 216
 2ce:	4c bf       	out	0x3c, r20	; 60
 2d0:	16 bf       	out	0x36, r17	; 54
 2d2:	09 98       	cbi	0x01, 1	; 1
 2d4:	19 9a       	sbi	0x03, 1	; 3
 2d6:	90 9a       	sbi	0x12, 0	; 18
 2d8:	81 9a       	sbi	0x10, 1	; 16
 2da:	78 94       	sei
 2dc:	40 a1       	lds	r20, 0x40	; 0x800040 <__data_start>
 2de:	50 e0       	ldi	r21, 0x00	; 0
 2e0:	49 30       	cpi	r20, 0x09	; 9
 2e2:	51 07       	cpc	r21, r17
 2e4:	e8 f4       	brcc	.+58     	; 0x320 <main+0x54>
 2e6:	e4 2f       	mov	r30, r20
 2e8:	f5 2f       	mov	r31, r21
 2ea:	e5 5f       	subi	r30, 0xF5	; 245
 2ec:	ff 4f       	sbci	r31, 0xFF	; 255
 2ee:	09 94       	ijmp
 2f0:	40 e0       	ldi	r20, 0x00	; 0
 2f2:	0e c0       	rjmp	.+28     	; 0x310 <main+0x44>
 2f4:	40 e0       	ldi	r20, 0x00	; 0
 2f6:	6b e2       	ldi	r22, 0x2B	; 43
 2f8:	0f c0       	rjmp	.+30     	; 0x318 <main+0x4c>
 2fa:	40 e0       	ldi	r20, 0x00	; 0
 2fc:	67 e5       	ldi	r22, 0x57	; 87
 2fe:	0c c0       	rjmp	.+24     	; 0x318 <main+0x4c>
 300:	40 e0       	ldi	r20, 0x00	; 0
 302:	01 c0       	rjmp	.+2      	; 0x306 <main+0x3a>
 304:	4f ea       	ldi	r20, 0xAF	; 175
 306:	6f ea       	ldi	r22, 0xAF	; 175
 308:	0d c0       	rjmp	.+26     	; 0x324 <main+0x58>
 30a:	4f ea       	ldi	r20, 0xAF	; 175
 30c:	0a c0       	rjmp	.+20     	; 0x322 <main+0x56>
 30e:	4f ea       	ldi	r20, 0xAF	; 175
 310:	60 e0       	ldi	r22, 0x00	; 0
 312:	02 c0       	rjmp	.+4      	; 0x318 <main+0x4c>
 314:	4f ea       	ldi	r20, 0xAF	; 175
 316:	6f ea       	ldi	r22, 0xAF	; 175
 318:	8f ea       	ldi	r24, 0xAF	; 175
 31a:	05 c0       	rjmp	.+10     	; 0x326 <main+0x5a>
 31c:	8a df       	rcall	.-236    	; 0x232 <rainbow>
 31e:	de cf       	rjmp	.-68     	; 0x2dc <main+0x10>
 320:	40 e0       	ldi	r20, 0x00	; 0
 322:	60 e0       	ldi	r22, 0x00	; 0
 324:	80 e0       	ldi	r24, 0x00	; 0
 326:	ed de       	rcall	.-550    	; 0x102 <fade>
 328:	d9 cf       	rjmp	.-78     	; 0x2dc <main+0x10>

0000032a <__udivmodqi4>:
 32a:	99 1b       	sub	r25, r25
 32c:	79 e0       	ldi	r23, 0x09	; 9
 32e:	04 c0       	rjmp	.+8      	; 0x338 <__udivmodqi4_ep>

00000330 <__udivmodqi4_loop>:
 330:	99 1f       	adc	r25, r25
 332:	96 17       	cp	r25, r22
 334:	08 f0       	brcs	.+2      	; 0x338 <__udivmodqi4_ep>
 336:	96 1b       	sub	r25, r22

00000338 <__udivmodqi4_ep>:
 338:	88 1f       	adc	r24, r24
 33a:	7a 95       	dec	r23
 33c:	c9 f7       	brne	.-14     	; 0x330 <__udivmodqi4_loop>
 33e:	80 95       	com	r24
 340:	08 95       	ret

00000342 <_exit>:
 342:	f8 94       	cli

00000344 <__stop_program>:
 344:	ff cf       	rjmp	.-2      	; 0x344 <__stop_program>
